target datalayout = "e-m:e-p270:32:32-p271:32:32-p272:64:64-i64:64-i128:128-f80:128-n8:16:32:64-S128"
target triple = "x86_64-pc-linux-gnu"

; Function Attrs: null_pointer_is_valid sspstrong uwtable
define internal zeroext i16 @be_fe_source_cell_id(ptr noundef %0, ptr noundef %1, ptr noundef %2, i32 noundef %3, i32 noundef %4, ptr noundef %5, i32 noundef %6) #1 {
  %8 = alloca ptr, align 8
  %9 = alloca ptr, align 8
  %10 = alloca ptr, align 8
  %11 = alloca i32, align 4
  %12 = alloca i32, align 4
  %13 = alloca ptr, align 8
  %14 = alloca i32, align 4
  %15 = alloca ptr, align 8
  %16 = alloca i32, align 4
  store ptr %0, ptr %8, align 8
  store ptr %1, ptr %9, align 8
  store ptr %2, ptr %10, align 8
  store i32 %3, ptr %11, align 4
  store i32 %4, ptr %12, align 4
  store ptr %5, ptr %13, align 8
  store i32 %6, ptr %14, align 4
  call void @llvm.lifetime.start.p0(i64 8, ptr %15) #5
  call void @llvm.lifetime.start.p0(i64 4, ptr %16) #5
  %17 = load i32, ptr %11, align 4
  store i32 %17, ptr %16, align 4
  %18 = load ptr, ptr %8, align 8
  %19 = load ptr, ptr %9, align 8
  %20 = load ptr, ptr %10, align 8
  %21 = load i32, ptr %16, align 4
  %22 = call zeroext i16 @de_emm_trac_area_id(ptr noundef %18, ptr noundef %19, ptr noundef %20, i32 noundef %21, i32 noundef 5, ptr noundef null, i32 noundef 0)
  %23 = zext i16 %22 to i32
  %24 = load i32, ptr %16, align 4
  %25 = add i32 %24, %23
  store i32 %25, ptr %16, align 4
  %26 = load ptr, ptr %8, align 8
  %27 = load i32, ptr %16, align 4
  %28 = call ptr @tvb_new_subset_remaining(ptr noundef %26, i32 noundef %27)
  store ptr %28, ptr %15, align 8
  %29 = load ptr, ptr %15, align 8
  %30 = load ptr, ptr %10, align 8
  %31 = load ptr, ptr %9, align 8
  %32 = call i32 @dissect_s1ap_EUTRAN_CGI_PDU(ptr noundef %29, ptr noundef %30, ptr noundef %31, ptr noundef null)
  %33 = load i32, ptr %16, align 4
  %34 = add i32 %33, %32
  store i32 %34, ptr %16, align 4
  %35 = load ptr, ptr %8, align 8
  %36 = load i32, ptr %16, align 4
  %37 = call ptr @tvb_new_subset_remaining(ptr noundef %35, i32 noundef %36)
  store ptr %37, ptr %15, align 8
  %38 = load ptr, ptr %15, align 8
  %39 = load ptr, ptr %10, align 8
  %40 = load ptr, ptr %9, align 8
  %41 = call i32 @dissect_s1ap_Global_ENB_ID_PDU(ptr noundef %38, ptr noundef %39, ptr noundef %40, ptr noundef null)
  %42 = load i32, ptr %12, align 4
  %43 = trunc i32 %42 to i16
  call void @llvm.lifetime.end.p0(i64 4, ptr %16) #5
  call void @llvm.lifetime.end.p0(i64 8, ptr %15) #5
  ret i16 %43
}