; Function Attrs: null_pointer_is_valid sspstrong uwtable
define internal noundef zeroext i16 @be_fe_source_cell_id(ptr noundef %0, ptr noundef %1, ptr noundef %2, i32 noundef %3, i32 noundef %4, ptr readnone captures(none) %5, i32 %6) #1 {
  %8 = tail call zeroext i16 @de_emm_trac_area_id(ptr noundef %0, ptr noundef %1, ptr noundef %2, i32 noundef %3, i32 noundef 5, ptr noundef null, i32 noundef 0)
  %9 = zext i16 %8 to i32
  %10 = add i32 %3, %9
  %11 = tail call ptr @tvb_new_subset_remaining(ptr noundef %0, i32 noundef %10)
  %12 = tail call i32 @dissect_s1ap_EUTRAN_CGI_PDU(ptr noundef %11, ptr noundef %2, ptr noundef %1, ptr noundef null)
  %13 = add i32 %10, %12
  %14 = tail call ptr @tvb_new_subset_remaining(ptr noundef %0, i32 noundef %13)
  %15 = tail call i32 @dissect_s1ap_Global_ENB_ID_PDU(ptr noundef %14, ptr noundef %2, ptr noundef %1, ptr noundef null)
  %16 = trunc i32 %4 to i16
  ret i16 %16
}